target datalayout = "e-m:e-p270:32:32-p271:32:32-p272:64:64-i64:64-i128:128-f80:128-n8:16:32:64-S128"
target triple = "x86_64-pc-linux-gnu"

@mpd_flag_string = internal global [15 x ptr] [ptr @.str.19, ptr @.str.20, ptr @.str.21, ptr @.str.22, ptr @.str.23, ptr @.str.24, ptr @.str.25, ptr @.str.26, ptr @.str.27, ptr @.str.28, ptr @.str.29, ptr @.str.30, ptr @.str.31, ptr @.str.32, ptr @.str.33], align 16
@.str.13 = private unnamed_addr constant [5 x i8] c"%s, \00", align 1

; Function Attrs: nounwind uwtable
define hidden i32 @mpd_lsnprint_flags(ptr noundef %0, i32 noundef %1, i32 noundef %2, ptr noundef %3) #0 {
  %5 = alloca i32, align 4
  %6 = alloca ptr, align 8
  %7 = alloca i32, align 4
  %8 = alloca i32, align 4
  %9 = alloca ptr, align 8
  %10 = alloca ptr, align 8
  %11 = alloca i32, align 4
  %12 = alloca i32, align 4
  %13 = alloca i32, align 4
  store ptr %0, ptr %6, align 8, !tbaa !8
  store i32 %1, ptr %7, align 4, !tbaa !25
  store i32 %2, ptr %8, align 4, !tbaa !25
  store ptr %3, ptr %9, align 8, !tbaa !29
  call void @llvm.lifetime.start.p0(i64 8, ptr %10) #10
  call void @llvm.lifetime.start.p0(i64 4, ptr %11) #10
  call void @llvm.lifetime.start.p0(i64 4, ptr %12) #10
  %14 = load ptr, ptr %9, align 8, !tbaa !29
  %15 = icmp eq ptr %14, null
  br i1 %15, label %16, label %17

16:                                               ; preds = %4
  store ptr @mpd_flag_string, ptr %9, align 8, !tbaa !29
  br label %17

17:                                               ; preds = %16, %4
  %18 = load ptr, ptr %6, align 8, !tbaa !8
  store i8 91, ptr %18, align 1, !tbaa !14
  %19 = load ptr, ptr %6, align 8, !tbaa !8
  %20 = getelementptr i8, ptr %19, i64 1
  store i8 0, ptr %20, align 1, !tbaa !14
  %21 = load ptr, ptr %6, align 8, !tbaa !8
  %22 = getelementptr i8, ptr %21, i64 1
  store ptr %22, ptr %10, align 8, !tbaa !8
  %23 = load i32, ptr %7, align 4, !tbaa !25
  %24 = add i32 %23, -1
  store i32 %24, ptr %7, align 4, !tbaa !25
  store i32 0, ptr %12, align 4, !tbaa !25
  br label %25

25:                                               ; preds = %60, %17
  %26 = load i32, ptr %12, align 4, !tbaa !25
  %27 = icmp slt i32 %26, 15
  br i1 %27, label %28, label %63

28:                                               ; preds = %25
  %29 = load i32, ptr %8, align 4, !tbaa !25
  %30 = load i32, ptr %12, align 4, !tbaa !25
  %31 = shl i32 1, %30
  %32 = and i32 %29, %31
  %33 = icmp ne i32 %32, 0
  br i1 %33, label %34, label %59

34:                                               ; preds = %28
  %35 = load ptr, ptr %10, align 8, !tbaa !8
  %36 = load i32, ptr %7, align 4, !tbaa !25
  %37 = sext i32 %36 to i64
  %38 = load ptr, ptr %9, align 8, !tbaa !29
  %39 = load i32, ptr %12, align 4, !tbaa !25
  %40 = sext i32 %39 to i64
  %41 = getelementptr ptr, ptr %38, i64 %40
  %42 = load ptr, ptr %41, align 8, !tbaa !8
  %43 = call i32 (ptr, i64, ptr, ...) @snprintf(ptr noundef %35, i64 noundef %37, ptr noundef @.str.13, ptr noundef %42) #10
  store i32 %43, ptr %11, align 4, !tbaa !25
  %44 = load i32, ptr %11, align 4, !tbaa !25
  %45 = icmp slt i32 %44, 0
  br i1 %45, label %50, label %46

46:                                               ; preds = %34
  %47 = load i32, ptr %11, align 4, !tbaa !25
  %48 = load i32, ptr %7, align 4, !tbaa !25
  %49 = icmp sge i32 %47, %48
  br i1 %49, label %50, label %51

50:                                               ; preds = %46, %34
  store i32 -1, ptr %5, align 4
  store i32 1, ptr %13, align 4
  br label %81

51:                                               ; preds = %46
  %52 = load i32, ptr %11, align 4, !tbaa !25
  %53 = load ptr, ptr %10, align 8, !tbaa !8
  %54 = sext i32 %52 to i64
  %55 = getelementptr i8, ptr %53, i64 %54
  store ptr %55, ptr %10, align 8, !tbaa !8
  %56 = load i32, ptr %11, align 4, !tbaa !25
  %57 = load i32, ptr %7, align 4, !tbaa !25
  %58 = sub i32 %57, %56
  store i32 %58, ptr %7, align 4, !tbaa !25
  br label %59

59:                                               ; preds = %51, %28
  br label %60

60:                                               ; preds = %59
  %61 = load i32, ptr %12, align 4, !tbaa !25
  %62 = add i32 %61, 1
  store i32 %62, ptr %12, align 4, !tbaa !25
  br label %25, !llvm.loop !78

63:                                               ; preds = %25
  %64 = load ptr, ptr %10, align 8, !tbaa !8
  %65 = load ptr, ptr %6, align 8, !tbaa !8
  %66 = getelementptr i8, ptr %65, i64 1
  %67 = icmp ne ptr %64, %66
  br i1 %67, label %68, label %71

68:                                               ; preds = %63
  %69 = load ptr, ptr %10, align 8, !tbaa !8
  %70 = getelementptr i8, ptr %69, i64 -2
  store ptr %70, ptr %10, align 8, !tbaa !8
  br label %71

71:                                               ; preds = %68, %63
  %72 = load ptr, ptr %10, align 8, !tbaa !8
  %73 = getelementptr i8, ptr %72, i32 1
  store ptr %73, ptr %10, align 8, !tbaa !8
  store i8 93, ptr %72, align 1, !tbaa !14
  %74 = load ptr, ptr %10, align 8, !tbaa !8
  store i8 0, ptr %74, align 1, !tbaa !14
  %75 = load ptr, ptr %10, align 8, !tbaa !8
  %76 = load ptr, ptr %6, align 8, !tbaa !8
  %77 = ptrtoint ptr %75 to i64
  %78 = ptrtoint ptr %76 to i64
  %79 = sub i64 %77, %78
  %80 = trunc i64 %79 to i32
  store i32 %80, ptr %5, align 4
  store i32 1, ptr %13, align 4
  br label %81

81:                                               ; preds = %71, %50
  call void @llvm.lifetime.end.p0(i64 4, ptr %12) #10
  call void @llvm.lifetime.end.p0(i64 4, ptr %11) #10
  call void @llvm.lifetime.end.p0(i64 8, ptr %10) #10
  %82 = load i32, ptr %5, align 4
  ret i32 %82
}