; Function Attrs: nofree nounwind uwtable
define hidden noundef i32 @mpd_lsnprint_flags(ptr noundef initializes((0, 2)) %0, i32 noundef %1, i32 noundef %2, ptr noundef readonly %3) local_unnamed_addr #12 {
  %5 = icmp eq ptr %3, null
  %spec.store.select = select i1 %5, ptr @mpd_flag_string, ptr %3
  store i8 91, ptr %0, align 1, !tbaa !11
  %6 = getelementptr i8, ptr %0, i64 1
  store i8 0, ptr %6, align 1, !tbaa !11
  %7 = add i32 %1, -1
  br label %8

8:                                                ; preds = %4, %22
  %indvars.iv = phi i64 [ 0, %4 ], [ %indvars.iv.next, %22 ]
  %.02836 = phi ptr [ %6, %4 ], [ %.1, %22 ]
  %.02935 = phi i32 [ %7, %4 ], [ %.130, %22 ]
  %9 = trunc nuw nsw i64 %indvars.iv to i32
  %10 = shl nuw nsw i32 1, %9
  %11 = and i32 %10, %2
  %.not32 = icmp eq i32 %11, 0
  br i1 %.not32, label %22, label %12

12:                                               ; preds = %8
  %13 = sext i32 %.02935 to i64
  %14 = getelementptr ptr, ptr %spec.store.select, i64 %indvars.iv
  %15 = load ptr, ptr %14, align 8, !tbaa !26
  %16 = tail call i32 (ptr, i64, ptr, ...) @snprintf(ptr noundef %.02836, i64 noundef %13, ptr noundef nonnull @.str.13, ptr noundef %15) #18
  %17 = icmp sgt i32 %16, -1
  %.not33 = icmp slt i32 %16, %.02935
  %or.cond = select i1 %17, i1 %.not33, i1 false
  br i1 %or.cond, label %18, label %.loopexit

18:                                               ; preds = %12
  %19 = zext nneg i32 %16 to i64
  %20 = getelementptr i8, ptr %.02836, i64 %19
  %21 = sub nsw i32 %.02935, %16
  br label %22

22:                                               ; preds = %8, %18
  %.130 = phi i32 [ %21, %18 ], [ %.02935, %8 ]
  %.1 = phi ptr [ %20, %18 ], [ %.02836, %8 ]
  %indvars.iv.next = add nuw nsw i64 %indvars.iv, 1
  %exitcond.not = icmp eq i64 %indvars.iv.next, 15
  br i1 %exitcond.not, label %23, label %8, !llvm.loop !68

23:                                               ; preds = %22
  %.not = icmp eq ptr %.1, %6
  %spec.select.idx = select i1 %.not, i64 0, i64 -2
  %spec.select = getelementptr i8, ptr %.1, i64 %spec.select.idx
  %24 = getelementptr i8, ptr %spec.select, i64 1
  store i8 93, ptr %spec.select, align 1, !tbaa !11
  store i8 0, ptr %24, align 1, !tbaa !11
  %25 = ptrtoint ptr %24 to i64
  %26 = ptrtoint ptr %0 to i64
  %27 = sub i64 %25, %26
  %28 = trunc i64 %27 to i32
  br label %.loopexit

.loopexit:                                        ; preds = %12, %23
  %.027 = phi i32 [ %28, %23 ], [ -1, %12 ]
  ret i32 %.027
}